target datalayout = "e-m:e-p270:32:32-p271:32:32-p272:64:64-i64:64-i128:128-f80:128-n8:16:32:64-S128"
target triple = "x86_64-pc-linux-gnu"

%"class.clang::TemplateArgument" = type { %union.anon }
%union.anon = type { %"struct.clang::TemplateArgument::DA" }
%"struct.clang::TemplateArgument::DA" = type { i32, ptr, ptr }
%"struct.clang::TemplateArgument::TA" = type { i32, i32, ptr }
%"class.std::optional" = type { %"struct.std::_Optional_base" }
%"struct.std::_Optional_base" = type { %"struct.std::_Optional_payload" }
%"struct.std::_Optional_payload" = type { %"struct.std::_Optional_payload_base.base", [3 x i8] }
%"struct.std::_Optional_payload_base.base" = type <{ %"union.std::_Optional_payload_base<unsigned int>::_Storage", i8 }>
%"union.std::_Optional_payload_base<unsigned int>::_Storage" = type { i32 }
%"struct.std::_Optional_payload_base" = type <{ %"union.std::_Optional_payload_base<unsigned int>::_Storage", i8, [3 x i8] }>

; Function Attrs: mustprogress nounwind uwtable
define linkonce_odr hidden void @_ZNSt22_Optional_payload_baseIjE8_StorageIjLb1EEC2Ev(ptr noundef nonnull align 4 dereferenceable(4) %0) unnamed_addr #0 comdat align 2 {
  %2 = alloca ptr, align 8
  store ptr %0, ptr %2, align 8
  ret void
}

; Function Attrs: mustprogress nounwind uwtable
define linkonce_odr hidden void @_ZNSt22_Optional_payload_baseIjE8_StorageIjLb1EEC2IJjEEESt10in_place_tDpOT_(ptr noundef nonnull align 4 dereferenceable(4) %0, ptr noundef nonnull align 4 dereferenceable(4) %1) unnamed_addr #0 comdat align 2 {
  %3 = alloca ptr, align 8
  %4 = alloca ptr, align 8
  store ptr %0, ptr %3, align 8
  store ptr %1, ptr %4, align 8
  %5 = load ptr, ptr %3, align 8
  %6 = load ptr, ptr %4, align 8
  %7 = load i32, ptr %6, align 4
  store i32 %7, ptr %5, align 4
  ret void
}

; Function Attrs: mustprogress nounwind uwtable
define linkonce_odr hidden void @_ZNSt22_Optional_payload_baseIjEC2Ev(ptr noundef nonnull align 4 dereferenceable(5) %0) unnamed_addr #0 comdat align 2 {
  %2 = alloca ptr, align 8
  store ptr %0, ptr %2, align 8
  %3 = load ptr, ptr %2, align 8
  %4 = getelementptr inbounds nuw %"struct.std::_Optional_payload_base", ptr %3, i32 0, i32 0
  call void @_ZNSt22_Optional_payload_baseIjE8_StorageIjLb1EEC2Ev(ptr noundef nonnull align 4 dereferenceable(4) %4) #10
  %5 = getelementptr inbounds nuw %"struct.std::_Optional_payload_base", ptr %3, i32 0, i32 1
  store i8 0, ptr %5, align 4
  ret void
}

; Function Attrs: mustprogress nounwind uwtable
define linkonce_odr hidden void @_ZNSt22_Optional_payload_baseIjEC2IJjEEESt10in_place_tDpOT_(ptr noundef nonnull align 4 dereferenceable(5) %0, ptr noundef nonnull align 4 dereferenceable(4) %1) unnamed_addr #0 comdat align 2 {
  %3 = alloca ptr, align 8
  %4 = alloca ptr, align 8
  store ptr %0, ptr %3, align 8
  store ptr %1, ptr %4, align 8
  %5 = load ptr, ptr %3, align 8
  %6 = getelementptr inbounds nuw %"struct.std::_Optional_payload_base", ptr %5, i32 0, i32 0
  %7 = load ptr, ptr %4, align 8
  call void @_ZNSt22_Optional_payload_baseIjE8_StorageIjLb1EEC2IJjEEESt10in_place_tDpOT_(ptr noundef nonnull align 4 dereferenceable(4) %6, ptr noundef nonnull align 4 dereferenceable(4) %7)
  %8 = getelementptr inbounds nuw %"struct.std::_Optional_payload_base", ptr %5, i32 0, i32 1
  store i8 1, ptr %8, align 4
  ret void
}

; Function Attrs: mustprogress nounwind uwtable
define linkonce_odr hidden void @_ZNSt17_Optional_payloadIjLb1ELb1ELb1EEC2Ev(ptr noundef nonnull align 4 dereferenceable(5) %0) unnamed_addr #0 comdat align 2 {
  %2 = alloca ptr, align 8
  store ptr %0, ptr %2, align 8
  %3 = load ptr, ptr %2, align 8
  call void @_ZNSt22_Optional_payload_baseIjEC2Ev(ptr noundef nonnull align 4 dereferenceable(5) %3) #10
  ret void
}

; Function Attrs: mustprogress nounwind uwtable
define linkonce_odr hidden void @_ZNSt17_Optional_payloadIjLb1ELb1ELb1EECI2St22_Optional_payload_baseIjEIJjEEESt10in_place_tDpOT_(ptr noundef nonnull align 4 dereferenceable(5) %0, ptr noundef nonnull align 4 dereferenceable(4) %1) unnamed_addr #0 comdat align 2 {
  %3 = alloca ptr, align 8
  %4 = alloca ptr, align 8
  store ptr %0, ptr %3, align 8
  store ptr %1, ptr %4, align 8
  %5 = load ptr, ptr %3, align 8
  %6 = load ptr, ptr %4, align 8
  call void @_ZNSt22_Optional_payload_baseIjEC2IJjEEESt10in_place_tDpOT_(ptr noundef nonnull align 4 dereferenceable(5) %5, ptr noundef nonnull align 4 dereferenceable(4) %6)
  ret void
}

; Function Attrs: mustprogress nounwind uwtable
define linkonce_odr hidden void @_ZNSt14_Optional_baseIjLb1ELb1EEC2Ev(ptr noundef nonnull align 4 dereferenceable(8) %0) unnamed_addr #0 comdat align 2 {
  %2 = alloca ptr, align 8
  store ptr %0, ptr %2, align 8
  %3 = load ptr, ptr %2, align 8
  %4 = getelementptr inbounds nuw %"struct.std::_Optional_base", ptr %3, i32 0, i32 0
  call void @_ZNSt17_Optional_payloadIjLb1ELb1ELb1EEC2Ev(ptr noundef nonnull align 4 dereferenceable(5) %4) #10
  ret void
}

; Function Attrs: mustprogress nounwind uwtable
define linkonce_odr hidden void @_ZNSt14_Optional_baseIjLb1ELb1EEC2IJjETnNSt9enable_ifIX18is_constructible_vIjDpT_EEbE4typeELb0EEESt10in_place_tDpOS3_(ptr noundef nonnull align 4 dereferenceable(8) %0, ptr noundef nonnull align 4 dereferenceable(4) %1) unnamed_addr #0 comdat align 2 {
  %3 = alloca ptr, align 8
  %4 = alloca ptr, align 8
  store ptr %0, ptr %3, align 8
  store ptr %1, ptr %4, align 8
  %5 = load ptr, ptr %3, align 8
  %6 = getelementptr inbounds nuw %"struct.std::_Optional_base", ptr %5, i32 0, i32 0
  %7 = load ptr, ptr %4, align 8
  call void @_ZNSt17_Optional_payloadIjLb1ELb1ELb1EECI2St22_Optional_payload_baseIjEIJjEEESt10in_place_tDpOT_(ptr noundef nonnull align 4 dereferenceable(5) %6, ptr noundef nonnull align 4 dereferenceable(4) %7)
  ret void
}

; Function Attrs: mustprogress nounwind uwtable
define linkonce_odr hidden void @_ZNSt8optionalIjEC2ESt9nullopt_t(ptr noundef nonnull align 4 dereferenceable(8) %0) unnamed_addr #0 comdat align 2 {
  %2 = alloca ptr, align 8
  store ptr %0, ptr %2, align 8
  %3 = load ptr, ptr %2, align 8
  call void @_ZNSt14_Optional_baseIjLb1ELb1EEC2Ev(ptr noundef nonnull align 4 dereferenceable(8) %3) #10
  ret void
}

; Function Attrs: mustprogress nounwind uwtable
define linkonce_odr hidden void @_ZNSt8optionalIjEC2IjTnNSt9enable_ifIX7__and_vISt6__not_ISt7is_sameIS0_NSt9remove_cvINSt16remove_referenceIT_E4typeEE4typeEEES3_IS4_ISt10in_place_tSB_EESt16is_constructibleIjJS7_EESt14is_convertibleIS7_jEEEbE4typeELb1EEEOS7_(ptr noundef nonnull align 4 dereferenceable(8) %0, ptr noundef nonnull align 4 dereferenceable(4) %1) unnamed_addr #0 comdat align 2 {
  %3 = alloca ptr, align 8
  %4 = alloca ptr, align 8
  store ptr %0, ptr %3, align 8
  store ptr %1, ptr %4, align 8
  %5 = load ptr, ptr %3, align 8
  %6 = load ptr, ptr %4, align 8
  call void @_ZNSt14_Optional_baseIjLb1ELb1EEC2IJjETnNSt9enable_ifIX18is_constructible_vIjDpT_EEbE4typeELb0EEESt10in_place_tDpOS3_(ptr noundef nonnull align 4 dereferenceable(8) %5, ptr noundef nonnull align 4 dereferenceable(4) %6)
  ret void
}

; Function Attrs: mustprogress nounwind uwtable
define dso_local i64 @_ZNK5clang16TemplateArgument24getNumTemplateExpansionsEv(ptr noundef nonnull align 8 dereferenceable(24) %0) #0 align 2 {
  %2 = alloca %"class.std::optional", align 4
  %3 = alloca ptr, align 8
  %4 = alloca i32, align 4
  store ptr %0, ptr %3, align 8
  %5 = load ptr, ptr %3, align 8
  %6 = getelementptr inbounds nuw %"class.clang::TemplateArgument", ptr %5, i32 0, i32 0
  %7 = getelementptr inbounds nuw %"struct.clang::TemplateArgument::TA", ptr %6, i32 0, i32 1
  %8 = load i32, ptr %7, align 4
  %9 = icmp ne i32 %8, 0
  br i1 %9, label %10, label %15

10:                                               ; preds = %1
  %11 = getelementptr inbounds nuw %"class.clang::TemplateArgument", ptr %5, i32 0, i32 0
  %12 = getelementptr inbounds nuw %"struct.clang::TemplateArgument::TA", ptr %11, i32 0, i32 1
  %13 = load i32, ptr %12, align 4
  %14 = sub i32 %13, 1
  store i32 %14, ptr %4, align 4
  call void @_ZNSt8optionalIjEC2IjTnNSt9enable_ifIX7__and_vISt6__not_ISt7is_sameIS0_NSt9remove_cvINSt16remove_referenceIT_E4typeEE4typeEEES3_IS4_ISt10in_place_tSB_EESt16is_constructibleIjJS7_EESt14is_convertibleIS7_jEEEbE4typeELb1EEEOS7_(ptr noundef nonnull align 4 dereferenceable(8) %2, ptr noundef nonnull align 4 dereferenceable(4) %4) #10
  br label %16

15:                                               ; preds = %1
  call void @_ZNSt8optionalIjEC2ESt9nullopt_t(ptr noundef nonnull align 4 dereferenceable(8) %2) #10
  br label %16

16:                                               ; preds = %15, %10
  %17 = getelementptr inbounds nuw %"class.std::optional", ptr %2, i32 0, i32 0
  %18 = getelementptr inbounds nuw %"struct.std::_Optional_base", ptr %17, i32 0, i32 0
  %19 = load i64, ptr %18, align 4
  ret i64 %19
}