; Function Attrs: mustprogress nofree norecurse nosync nounwind willreturn memory(argmem: read) uwtable
define dso_local range(i64 0, 8589934592) i64 @_ZNK5clang16TemplateArgument24getNumTemplateExpansionsEv(ptr nocapture noundef nonnull readonly align 8 dereferenceable(24) %0) local_unnamed_addr #5 align 2 {
  %2 = getelementptr inbounds nuw i8, ptr %0, i64 4
  %3 = load i32, ptr %2, align 4
  %.not.not = icmp eq i32 %3, 0
  %4 = add i32 %3, -1
  %.sroa.2.0.insert.shift = select i1 %.not.not, i64 0, i64 4294967296
  %.sroa.0.0.insert.ext = zext i32 %4 to i64
  %.sroa.0.0.insert.insert = or disjoint i64 %.sroa.2.0.insert.shift, %.sroa.0.0.insert.ext
  ret i64 %.sroa.0.0.insert.insert
}